; Function Attrs: mustprogress uwtable
define noundef i32 @_ZN5draco10PointCloud12AddAttributeESt10unique_ptrINS_14PointAttributeESt14default_deleteIS2_EE(ptr noundef nonnull align 8 dereferenceable(164) %0, ptr nocapture noundef %1) local_unnamed_addr #6 align 2 personality ptr @__gxx_personality_v0 {
  %3 = alloca %"class.std::unique_ptr.7", align 8
  %4 = getelementptr inbounds i8, ptr %0, i64 16
  %5 = getelementptr inbounds i8, ptr %0, i64 24
  %6 = load ptr, ptr %5, align 8
  %7 = load ptr, ptr %4, align 8
  %8 = ptrtoint ptr %6 to i64
  %9 = ptrtoint ptr %7 to i64
  %10 = sub i64 %8, %9
  %11 = lshr exact i64 %10, 3
  %12 = trunc i64 %11 to i32
  %13 = load i64, ptr %1, align 8
  store i64 %13, ptr %3, align 8
  store ptr null, ptr %1, align 8
  %14 = load ptr, ptr %0, align 8
  %15 = getelementptr inbounds i8, ptr %14, i64 16
  %16 = load ptr, ptr %15, align 8
  invoke void %16(ptr noundef nonnull align 8 dereferenceable(164) %0, i32 noundef %12, ptr noundef nonnull %3)
          to label %17 unwind label %28

17:                                               ; preds = %2
  %18 = load ptr, ptr %3, align 8
  %.not.i = icmp eq ptr %18, null
  br i1 %.not.i, label %_ZNSt10unique_ptrIN5draco14PointAttributeESt14default_deleteIS1_EED2Ev.exit, label %19

19:                                               ; preds = %17
  call void @_ZNKSt14default_deleteIN5draco14PointAttributeEEclEPS1_(ptr noundef nonnull align 1 dereferenceable(1) %3, ptr noundef nonnull %18)
  br label %_ZNSt10unique_ptrIN5draco14PointAttributeESt14default_deleteIS1_EED2Ev.exit

_ZNSt10unique_ptrIN5draco14PointAttributeESt14default_deleteIS1_EED2Ev.exit: ; preds = %17, %19
  %20 = load ptr, ptr %5, align 8
  %21 = load ptr, ptr %4, align 8
  %22 = ptrtoint ptr %20 to i64
  %23 = ptrtoint ptr %21 to i64
  %24 = sub i64 %22, %23
  %25 = lshr exact i64 %24, 3
  %26 = trunc i64 %25 to i32
  %27 = add i32 %26, -1
  ret i32 %27

28:                                               ; preds = %2
  %29 = landingpad { ptr, i32 }
          cleanup
  %30 = load ptr, ptr %3, align 8
  %.not.i2 = icmp eq ptr %30, null
  br i1 %.not.i2, label %_ZNSt10unique_ptrIN5draco14PointAttributeESt14default_deleteIS1_EED2Ev.exit3, label %31

31:                                               ; preds = %28
  call void @_ZNKSt14default_deleteIN5draco14PointAttributeEEclEPS1_(ptr noundef nonnull align 1 dereferenceable(1) %3, ptr noundef nonnull %30)
  br label %_ZNSt10unique_ptrIN5draco14PointAttributeESt14default_deleteIS1_EED2Ev.exit3

_ZNSt10unique_ptrIN5draco14PointAttributeESt14default_deleteIS1_EED2Ev.exit3: ; preds = %28, %31
  resume { ptr, i32 } %29
}